; Function Attrs: mustprogress nounwind uwtable
define internal void @_ZN32pxrInternal_v0_24__pxrReserved__12_GLOBAL__N_117StringNodeCreatorD2Ev(ptr nocapture noundef nonnull align 8 dereferenceable(32) %0) unnamed_addr #5 align 2 personality ptr @__gxx_personality_v0 {
  store ptr getelementptr inbounds inrange(-16, 24) (i8, ptr @_ZTVN32pxrInternal_v0_24__pxrReserved__12_GLOBAL__N_117StringNodeCreatorE, i64 16), ptr %0, align 8
  %2 = getelementptr inbounds nuw i8, ptr %0, i64 8
  %3 = load ptr, ptr %2, align 8
  %4 = getelementptr inbounds i8, ptr %0, i64 16
  %5 = load ptr, ptr %4, align 8
  %.not4.i.i.i.i = icmp eq ptr %3, %5
  br i1 %.not4.i.i.i.i, label %_ZSt8_DestroyIPN32pxrInternal_v0_24__pxrReserved__26Sdf_VariableExpressionImpl10StringNode4PartES3_EvT_S5_RSaIT0_E.exit.i, label %.lr.ph.i.i.i.i

.lr.ph.i.i.i.i:                                   ; preds = %1, %.lr.ph.i.i.i.i
  %.05.i.i.i.i = phi ptr [ %6, %.lr.ph.i.i.i.i ], [ %3, %1 ]
  tail call void @_ZNSt7__cxx1112basic_stringIcSt11char_traitsIcESaIcEED1Ev(ptr noundef nonnull align 8 dereferenceable(32) %.05.i.i.i.i) #25
  %6 = getelementptr inbounds i8, ptr %.05.i.i.i.i, i64 40
  %.not.i.i.i.i = icmp eq ptr %6, %5
  br i1 %.not.i.i.i.i, label %_ZSt8_DestroyIPN32pxrInternal_v0_24__pxrReserved__26Sdf_VariableExpressionImpl10StringNode4PartES3_EvT_S5_RSaIT0_E.exitthread-pre-split.i, label %.lr.ph.i.i.i.i, !llvm.loop !132

_ZSt8_DestroyIPN32pxrInternal_v0_24__pxrReserved__26Sdf_VariableExpressionImpl10StringNode4PartES3_EvT_S5_RSaIT0_E.exitthread-pre-split.i: ; preds = %.lr.ph.i.i.i.i
  %.pr.i = load ptr, ptr %2, align 8
  br label %_ZSt8_DestroyIPN32pxrInternal_v0_24__pxrReserved__26Sdf_VariableExpressionImpl10StringNode4PartES3_EvT_S5_RSaIT0_E.exit.i

_ZSt8_DestroyIPN32pxrInternal_v0_24__pxrReserved__26Sdf_VariableExpressionImpl10StringNode4PartES3_EvT_S5_RSaIT0_E.exit.i: ; preds = %_ZSt8_DestroyIPN32pxrInternal_v0_24__pxrReserved__26Sdf_VariableExpressionImpl10StringNode4PartES3_EvT_S5_RSaIT0_E.exitthread-pre-split.i, %1
  %7 = phi ptr [ %.pr.i, %_ZSt8_DestroyIPN32pxrInternal_v0_24__pxrReserved__26Sdf_VariableExpressionImpl10StringNode4PartES3_EvT_S5_RSaIT0_E.exitthread-pre-split.i ], [ %3, %1 ]
  %.not.i.i.i = icmp eq ptr %7, null
  br i1 %.not.i.i.i, label %_ZNSt6vectorIN32pxrInternal_v0_24__pxrReserved__26Sdf_VariableExpressionImpl10StringNode4PartESaIS3_EED2Ev.exit, label %8

8:                                                ; preds = %_ZSt8_DestroyIPN32pxrInternal_v0_24__pxrReserved__26Sdf_VariableExpressionImpl10StringNode4PartES3_EvT_S5_RSaIT0_E.exit.i
  %9 = getelementptr inbounds i8, ptr %0, i64 24
  %10 = load ptr, ptr %9, align 8
  %11 = ptrtoint ptr %10 to i64
  %12 = ptrtoint ptr %7 to i64
  %13 = sub i64 %11, %12
  tail call void @_ZdlPvm(ptr noundef nonnull %7, i64 noundef %13) #27
  br label %_ZNSt6vectorIN32pxrInternal_v0_24__pxrReserved__26Sdf_VariableExpressionImpl10StringNode4PartESaIS3_EED2Ev.exit

_ZNSt6vectorIN32pxrInternal_v0_24__pxrReserved__26Sdf_VariableExpressionImpl10StringNode4PartESaIS3_EED2Ev.exit: ; preds = %_ZSt8_DestroyIPN32pxrInternal_v0_24__pxrReserved__26Sdf_VariableExpressionImpl10StringNode4PartES3_EvT_S5_RSaIT0_E.exit.i, %8
  ret void
}